00080	      	HW3		START	128
.主程式
00080	6D0003	HERE	LDS		#3
00083	4B20CD			JSUB	INPUT
00086	4B20A7			JSUB	LCM	
00089	  9041			ADDR	S, X
0008B	69000F			LDB		#15
0008E	  A013			COMPR	X, B 
00090	3B2FED			JLT		HERE
00093	050000			LDX		#0
00096	010080			LDA		#128
00099	3F20FF			J		OUTPUT
		
.最大公因數
0009C	0321B4	MCF		LDA		NUM1
.判斷NUM1跟NUM2誰比較小，可節省時間
0009F	2B21B4			COMP	NUM2
000A2	3B2007			JLT		USE1
000A5	03900256		+LDA	NUM2, X
000A9	3F2044			J		USE2
000AC	      			BASE	SEC2
.判斷是NUM2的因數	
000AC	6B21A7	USE1	LDB		NUM2
000AF	  9C03			DIVR	A, B
000B1	  9803			MULR	A, B
000B3	7721A0			LDT		NUM2
000B6	  9435			SUBR	B, T
000B8	87218F			STT		R
000BB	690000			LDB		#0
000BE	  A053			COMPR	T, B
000C0	0FA196			STA		MANS, X
000C3	331000D0		+JEQ	SEC1
000C7	0FA18F			STA		MANS, X
000CA	1D0001			SUB		#1
000CD	3F2FDC			J		USE1
.判斷是NUM1的因數		
000D0	6B2180	SEC1	LDB		NUM1
000D3	  9C03			DIVR	A, B
000D5	  9803			MULR	A, B
000D7	772179			LDT		NUM1
000DA	  9435			SUBR	B, T
000DC	87216B			STT		R
000DF	690000			LDB		#0
000E2	  A053			COMPR	T, B
000E4	0FA172			STA		MANS, X
000E7	1D0001			SUB		#1	
000EA	372FBF			JGT		USE1
000ED	4F0000			RSUB
.判斷是NUM1的因數		
000F0	6B2160	USE2	LDB		NUM1
000F3	  9C03			DIVR	A, B
000F5	  9803			MULR	A, B														
000F7	772159			LDT		NUM1
000FA	  9435			SUBR	B, T
000FC	87214B			STT		R
000FF	690000			LDB		#0
00102	  A053			COMPR	T, B
00104	332009			JEQ		SEC2
00107	0FA14F			STA		MANS, X
0010A	1D0001			SUB		#1
0010D	3F2FE0			J		USE2	
.判斷是NUM2的因數
00110	6B2143	SEC2	LDB		NUM2
00113	  9C03			DIVR	A, B
00115	  9803			MULR	A, B
00117	77213C			LDT		NUM2
0011A	  9435			SUBR	B, T
0011C	87212B			STT		R
0011F	690000			LDB		#0
00122	  A053			COMPR	T, B
00124	0FA132			STA		MANS, X
00127	1D0001			SUB		#1
0012A	372FC3			JGT		USE2
0012D	4F0000			RSUB
.最小公倍數		
00130	032120	LCM		LDA		NUM1
00133	6B2120			LDB		NUM2
00136	  9830			MULR	B, A
00138	0F2112			STA		TMP
0013B	172112			STL		RTMP
0013E	4B2F5B			JSUB	MCF
00141	032109			LDA		TMP
00144	27A112			DIV		MANS, X
00147	0FA11E			STA		LANS, X
0014A	0B2103			LDL		RTMP
0014D	4F0000			RSUB
00150	      	JK		RESW 	1
.輸入		
00153	E320EF	INPUT	TD 		DEV5
00156	332FFA			JEQ 	INPUT
00159	010000			LDA		#0
0015C	DB20E6			RD		DEV5
0015F	1D0030			SUB		#48
00162	21000A			MUL		#10
00165	0F20EB			STA		NUM1
00168	DB20DA			RD		DEV5
0016B	1D0030			SUB		#48
0016E	1B20E2			ADD		NUM1
00171	0F20DF			STA		NUM1
00174	DB20CE			RD		DEV5
00177	DB20CB			RD		DEV5
0017A	1D0030			SUB		#48
0017D	21000A			MUL		#10
00180	0F20D3			STA		NUM2
00183	DB20BF			RD		DEV5
00186	1D0030			SUB		#48
00189	1B20CA			ADD		NUM2
0018C	0F20C7			STA		NUM2
0018F	0F20C4			STA		NUM2
00192	DB20B0			RD		DEV5
00195	DB20AD			RD		DEV5
00198	4F0000			RSUB
.輸出最大公因數和最小公倍數
0019B	010000	OUTPUT	LDA		#0
0019E	0F20AC			STA		TMP
001A1	03A0B5			LDA		MANS, X
001A4	2503E8			DIV		#1000
001A7	4B205E			JSUB	ZERO
001AA	03A0AC			LDA		MANS, X
001AD	250064			DIV		#100
001B0	4B2055			JSUB	ZERO
001B3	03A0A3			LDA		MANS, X
001B6	25000A			DIV		#10
001B9	4B204C			JSUB	ZERO
001BC	03A09A			LDA		MANS, X
001BF	4B2046			JSUB	ZERO
001C2	010020			LDA		#32
001C5	DF207E			WD		DEV6
001C8	010000			LDA		#0
001CB	0F207F			STA		TMP
001CE	03A097			LDA		LANS, X
001D1	2503E8			DIV		#1000
001D4	4B2031			JSUB	ZERO
001D7	03A08E			LDA		LANS, X
001DA	250064			DIV		#100
001DD	4B2028			JSUB	ZERO
001E0	03A085			LDA		LANS, X
001E3	25000A			DIV		#10
001E6	4B201F			JSUB	ZERO
001E9	03A07C			LDA		LANS, X
001EC	4B2019			JSUB	ZERO
001EF	01000A			LDA		#10
001F2	DF2051			WD		DEV6
001F5	010000			LDA		#0
001F8	0F2052			STA		TMP
001FB	  9041			ADDR	S, X
001FD	69000F			LDB		#15
00200	  A013			COMPR	X, B 
00202	3B2F96			JLT		OUTPUT
00205	3F203A			J		FINAL
		
00208	0F2048	ZERO	STA		NUM1
0020B	01000A			LDA		#10
0020E	6B2042			LDB		NUM1
00211	  9C03			DIVR	A, B
00213	  9803			MULR	A, B
00215	77203B			LDT		NUM1
00218	  9435			SUBR	B, T
0021A	010000			LDA		#0
0021D	87202A			STT		R
.判斷是不是開頭
00220	2B202A			COMP	TMP
00223	3B2008			JLT		PRINT
.判斷是否為零
00226	  A050			COMPR	T, A
00228	372003			JGT		PRINT
0022B	4F0000			RSUB
.印出
0022E	032019	PRINT	LDA		R
00231	190030			ADD		#48
00234	DF200F			WD		DEV6
00237	010001			LDA		#1
0023A	0F2010			STA		TMP
0023D	  B810			TIXR 	X
0023F	4F0000			RSUB
00242	3F2FFD	FINAL	J		FINAL		
00245	05    	DEV5	BYTE  	X'05'	
00246	06    	DEV6	BYTE  	X'06'
00247	      	Q		RESW	1
0024A	      	R		RESW	1
0024D	      	TMP		RESW	1
00250	      	RTMP	RESW	1
00253	      	NUM1	RESW	1
00256	      	NUM2	RESW	1
00259	      	MANS	RESW	5
00268	      	LANS	RESW	5
00277	      		    END		HERE
